target datalayout = "e-m:e-p270:32:32-p271:32:32-p272:64:64-i64:64-i128:128-f80:128-n8:16:32:64-S128"
target triple = "x86_64-pc-linux-gnu"

%struct.hid_device_info = type { ptr, i16, i16, ptr, i16, ptr, ptr, i16, i16, i32, ptr, i32, i32, i32, i32 }
%struct.PLATFORM_hid_device_ = type { i32, i32, i32, ptr, ptr }

@.str.14 = private unnamed_addr constant [19 x i8] c"Zero buffer/length\00", align 1
@.str.31 = private unnamed_addr constant [3 x i8] c"%s\00", align 1

; Function Attrs: nounwind uwtable
define internal void @register_error_str(ptr noundef %0, ptr noundef %1) #0 {
  %3 = alloca ptr, align 8
  %4 = alloca ptr, align 8
  store ptr %0, ptr %3, align 8
  store ptr %1, ptr %4, align 8
  %5 = load ptr, ptr %3, align 8
  %6 = load ptr, ptr %5, align 8
  call void @free(ptr noundef %6) #10
  %7 = load ptr, ptr %4, align 8
  %8 = icmp ne ptr %7, null
  br i1 %8, label %9, label %12

9:                                                ; preds = %2
  %10 = load ptr, ptr %4, align 8
  %11 = call zeroext i1 (ptr, ...) @SDL_SetError_REAL(ptr noundef @.str.31, ptr noundef %10)
  br label %14

12:                                               ; preds = %2
  %13 = call zeroext i1 @SDL_ClearError_REAL()
  br label %14

14:                                               ; preds = %12, %9
  ret void
}

; Function Attrs: nounwind uwtable
define internal void @register_device_error(ptr noundef %0, ptr noundef %1) #0 {
  %3 = alloca ptr, align 8
  %4 = alloca ptr, align 8
  store ptr %0, ptr %3, align 8
  store ptr %1, ptr %4, align 8
  %5 = load ptr, ptr %3, align 8
  %6 = getelementptr inbounds nuw %struct.PLATFORM_hid_device_, ptr %5, i32 0, i32 3
  %7 = load ptr, ptr %4, align 8
  call void @register_error_str(ptr noundef %6, ptr noundef %7)
  ret void
}

; Function Attrs: nounwind uwtable
define hidden i32 @PLATFORM_hid_get_product_string(ptr noundef %0, ptr noundef %1, i64 noundef %2) #0 {
  %4 = alloca i32, align 4
  %5 = alloca ptr, align 8
  %6 = alloca ptr, align 8
  %7 = alloca i64, align 8
  %8 = alloca ptr, align 8
  %9 = alloca i32, align 4
  store ptr %0, ptr %5, align 8
  store ptr %1, ptr %6, align 8
  store i64 %2, ptr %7, align 8
  %10 = load ptr, ptr %6, align 8
  %11 = icmp ne ptr %10, null
  br i1 %11, label %12, label %15

12:                                               ; preds = %3
  %13 = load i64, ptr %7, align 8
  %14 = icmp ne i64 %13, 0
  br i1 %14, label %17, label %15

15:                                               ; preds = %12, %3
  %16 = load ptr, ptr %5, align 8
  call void @register_device_error(ptr noundef %16, ptr noundef @.str.14)
  store i32 -1, ptr %4, align 4
  br label %44

17:                                               ; preds = %12
  call void @llvm.lifetime.start.p0(i64 8, ptr %8) #10
  %18 = load ptr, ptr %5, align 8
  %19 = call ptr @PLATFORM_hid_get_device_info(ptr noundef %18)
  store ptr %19, ptr %8, align 8
  %20 = load ptr, ptr %8, align 8
  %21 = icmp ne ptr %20, null
  br i1 %21, label %23, label %22

22:                                               ; preds = %17
  store i32 -1, ptr %4, align 4
  store i32 1, ptr %9, align 4
  br label %43

23:                                               ; preds = %17
  %24 = load ptr, ptr %8, align 8
  %25 = getelementptr inbounds nuw %struct.hid_device_info, ptr %24, i32 0, i32 6
  %26 = load ptr, ptr %25, align 8
  %27 = icmp ne ptr %26, null
  br i1 %27, label %28, label %39

28:                                               ; preds = %23
  %29 = load ptr, ptr %6, align 8
  %30 = load ptr, ptr %8, align 8
  %31 = getelementptr inbounds nuw %struct.hid_device_info, ptr %30, i32 0, i32 6
  %32 = load ptr, ptr %31, align 8
  %33 = load i64, ptr %7, align 8
  %34 = call ptr @wcsncpy(ptr noundef %29, ptr noundef %32, i64 noundef %33) #10
  %35 = load ptr, ptr %6, align 8
  %36 = load i64, ptr %7, align 8
  %37 = sub i64 %36, 1
  %38 = getelementptr inbounds nuw i32, ptr %35, i64 %37
  store i32 0, ptr %38, align 4
  br label %42

39:                                               ; preds = %23
  %40 = load ptr, ptr %6, align 8
  %41 = getelementptr inbounds i32, ptr %40, i64 0
  store i32 0, ptr %41, align 4
  br label %42

42:                                               ; preds = %39, %28
  store i32 0, ptr %4, align 4
  store i32 1, ptr %9, align 4
  br label %43

43:                                               ; preds = %42, %22
  call void @llvm.lifetime.end.p0(i64 8, ptr %8) #10
  br label %44

44:                                               ; preds = %43, %15
  %45 = load i32, ptr %4, align 4
  ret i32 %45
}